target datalayout = "e-m:e-p270:32:32-p271:32:32-p272:64:64-i64:64-i128:128-f80:128-n8:16:32:64-S128"
target triple = "x86_64-pc-linux-gnu"

%struct.lv_ll_t = type { i32, ptr, ptr }
%struct.lv_area_t = type { i32, i32, i32, i32 }
%struct._lv_layer_t = type { ptr, %struct.lv_area_t, i32, %struct.lv_area_t, %struct.lv_area_t, i8, i32, ptr, ptr, ptr, i8, ptr }
%struct._lv_display_t = type { i32, i32, i32, i32, i32, i32, i32, ptr, ptr, ptr, ptr, ptr, i32, i32, i8, i32, i16, i32, [32 x %struct.lv_area_t], [32 x i8], i32, i32, %struct.lv_ll_t, %struct._lv_draw_buf_t, %struct._lv_draw_buf_t, ptr, ptr, ptr, ptr, ptr, ptr, ptr, ptr, ptr, ptr, i32, i8, ptr, ptr, %struct.lv_event_list_t, i8, ptr, ptr, i32, %struct.lv_area_t }
%struct._lv_draw_buf_t = type { %struct.lv_image_header_t, i32, ptr, ptr, ptr }
%struct.lv_image_header_t = type <{ i64, i32 }>
%struct.lv_event_list_t = type { %struct._lv_array_t, i8 }
%struct._lv_array_t = type { ptr, i32, i32, i32, i8 }

; Function Attrs: nounwind uwtable
define void @lv_layer_reset(ptr noundef %0) #0 {
  %2 = alloca ptr, align 8
  store ptr %0, ptr %2, align 8, !tbaa !39
  br label %3

3:                                                ; preds = %1
  %4 = load ptr, ptr %2, align 8, !tbaa !39
  %5 = icmp ne ptr %4, null
  br i1 %5, label %10, label %6

6:                                                ; preds = %3
  br label %7

7:                                                ; preds = %6
  br label %8

8:                                                ; preds = %7
  br label %9

9:                                                ; preds = %8, %9
  br label %9

10:                                               ; preds = %3
  br label %11

11:                                               ; preds = %10
  %12 = load ptr, ptr %2, align 8, !tbaa !39
  %13 = getelementptr inbounds nuw %struct._lv_layer_t, ptr %12, i32 0, i32 5
  store i8 -1, ptr %13, align 4, !tbaa !115
  ret void
}

; Function Attrs: inlinehint nounwind uwtable
define internal void @lv_memzero(ptr noundef %0, i64 noundef %1) #4 {
  %3 = alloca ptr, align 8
  %4 = alloca i64, align 8
  store ptr %0, ptr %3, align 8, !tbaa !41
  store i64 %1, ptr %4, align 8, !tbaa !36
  %5 = load ptr, ptr %3, align 8, !tbaa !41
  %6 = load i64, ptr %4, align 8, !tbaa !36
  call void @lv_memset(ptr noundef %5, i8 noundef zeroext 0, i64 noundef %6)
  ret void
}

; Function Attrs: nounwind uwtable
define void @lv_layer_init(ptr noundef %0) #0 {
  %2 = alloca ptr, align 8
  store ptr %0, ptr %2, align 8, !tbaa !39
  br label %3

3:                                                ; preds = %1
  %4 = load ptr, ptr %2, align 8, !tbaa !39
  %5 = icmp ne ptr %4, null
  br i1 %5, label %10, label %6

6:                                                ; preds = %3
  br label %7

7:                                                ; preds = %6
  br label %8

8:                                                ; preds = %7
  br label %9

9:                                                ; preds = %8, %9
  br label %9

10:                                               ; preds = %3
  br label %11

11:                                               ; preds = %10
  %12 = load ptr, ptr %2, align 8, !tbaa !39
  call void @lv_memzero(ptr noundef %12, i64 noundef 112)
  %13 = load ptr, ptr %2, align 8, !tbaa !39
  call void @lv_layer_reset(ptr noundef %13)
  ret void
}

; Function Attrs: nounwind uwtable
define void @lv_draw_layer_init(ptr noundef %0, ptr noundef %1, i32 noundef %2, ptr noundef %3) #0 {
  %5 = alloca ptr, align 8
  %6 = alloca ptr, align 8
  %7 = alloca i32, align 4
  %8 = alloca ptr, align 8
  %9 = alloca ptr, align 8
  %10 = alloca ptr, align 8
  store ptr %0, ptr %5, align 8, !tbaa !39
  store ptr %1, ptr %6, align 8, !tbaa !39
  store i32 %2, ptr %7, align 4, !tbaa !45
  store ptr %3, ptr %8, align 8, !tbaa !41
  %11 = load ptr, ptr %5, align 8, !tbaa !39
  call void @lv_layer_init(ptr noundef %11)
  call void @llvm.lifetime.start.p0(i64 8, ptr %9) #5
  %12 = call ptr @lv_refr_get_disp_refreshing()
  store ptr %12, ptr %9, align 8, !tbaa !69
  %13 = load ptr, ptr %6, align 8, !tbaa !39
  %14 = load ptr, ptr %5, align 8, !tbaa !39
  %15 = getelementptr inbounds nuw %struct._lv_layer_t, ptr %14, i32 0, i32 8
  store ptr %13, ptr %15, align 8, !tbaa !83
  %16 = load ptr, ptr %5, align 8, !tbaa !39
  %17 = getelementptr inbounds nuw %struct._lv_layer_t, ptr %16, i32 0, i32 3
  %18 = load ptr, ptr %8, align 8, !tbaa !41
  call void @llvm.memcpy.p0.p0.i64(ptr align 4 %17, ptr align 4 %18, i64 16, i1 false), !tbaa.struct !44
  %19 = load ptr, ptr %5, align 8, !tbaa !39
  %20 = getelementptr inbounds nuw %struct._lv_layer_t, ptr %19, i32 0, i32 1
  %21 = load ptr, ptr %8, align 8, !tbaa !41
  call void @llvm.memcpy.p0.p0.i64(ptr align 8 %20, ptr align 4 %21, i64 16, i1 false), !tbaa.struct !44
  %22 = load ptr, ptr %5, align 8, !tbaa !39
  %23 = getelementptr inbounds nuw %struct._lv_layer_t, ptr %22, i32 0, i32 4
  %24 = load ptr, ptr %8, align 8, !tbaa !41
  call void @llvm.memcpy.p0.p0.i64(ptr align 4 %23, ptr align 4 %24, i64 16, i1 false), !tbaa.struct !44
  %25 = load i32, ptr %7, align 4, !tbaa !45
  %26 = load ptr, ptr %5, align 8, !tbaa !39
  %27 = getelementptr inbounds nuw %struct._lv_layer_t, ptr %26, i32 0, i32 2
  store i32 %25, ptr %27, align 8, !tbaa !116
  %28 = load ptr, ptr %9, align 8, !tbaa !69
  %29 = getelementptr inbounds nuw %struct._lv_display_t, ptr %28, i32 0, i32 26
  %30 = load ptr, ptr %29, align 8, !tbaa !117
  %31 = icmp ne ptr %30, null
  br i1 %31, label %32, label %38

32:                                               ; preds = %4
  %33 = load ptr, ptr %9, align 8, !tbaa !69
  %34 = getelementptr inbounds nuw %struct._lv_display_t, ptr %33, i32 0, i32 26
  %35 = load ptr, ptr %34, align 8, !tbaa !117
  %36 = load ptr, ptr %9, align 8, !tbaa !69
  %37 = load ptr, ptr %5, align 8, !tbaa !39
  call void %35(ptr noundef %36, ptr noundef %37)
  br label %38

38:                                               ; preds = %32, %4
  %39 = load ptr, ptr %9, align 8, !tbaa !69
  %40 = getelementptr inbounds nuw %struct._lv_display_t, ptr %39, i32 0, i32 25
  %41 = load ptr, ptr %40, align 8, !tbaa !70
  %42 = icmp ne ptr %41, null
  br i1 %42, label %43, label %60

43:                                               ; preds = %38
  call void @llvm.lifetime.start.p0(i64 8, ptr %10) #5
  %44 = load ptr, ptr %9, align 8, !tbaa !69
  %45 = getelementptr inbounds nuw %struct._lv_display_t, ptr %44, i32 0, i32 25
  %46 = load ptr, ptr %45, align 8, !tbaa !70
  store ptr %46, ptr %10, align 8, !tbaa !39
  br label %47

47:                                               ; preds = %52, %43
  %48 = load ptr, ptr %10, align 8, !tbaa !39
  %49 = getelementptr inbounds nuw %struct._lv_layer_t, ptr %48, i32 0, i32 9
  %50 = load ptr, ptr %49, align 8, !tbaa !79
  %51 = icmp ne ptr %50, null
  br i1 %51, label %52, label %56

52:                                               ; preds = %47
  %53 = load ptr, ptr %10, align 8, !tbaa !39
  %54 = getelementptr inbounds nuw %struct._lv_layer_t, ptr %53, i32 0, i32 9
  %55 = load ptr, ptr %54, align 8, !tbaa !79
  store ptr %55, ptr %10, align 8, !tbaa !39
  br label %47, !llvm.loop !118

56:                                               ; preds = %47
  %57 = load ptr, ptr %5, align 8, !tbaa !39
  %58 = load ptr, ptr %10, align 8, !tbaa !39
  %59 = getelementptr inbounds nuw %struct._lv_layer_t, ptr %58, i32 0, i32 9
  store ptr %57, ptr %59, align 8, !tbaa !79
  call void @llvm.lifetime.end.p0(i64 8, ptr %10) #5
  br label %64

60:                                               ; preds = %38
  %61 = load ptr, ptr %5, align 8, !tbaa !39
  %62 = load ptr, ptr %9, align 8, !tbaa !69
  %63 = getelementptr inbounds nuw %struct._lv_display_t, ptr %62, i32 0, i32 25
  store ptr %61, ptr %63, align 8, !tbaa !70
  br label %64

64:                                               ; preds = %60, %56
  call void @llvm.lifetime.end.p0(i64 8, ptr %9) #5
  ret void
}